; Function Attrs: mustprogress nofree norecurse nosync nounwind willreturn memory(read, inaccessiblemem: none) uwtable
define hidden noundef zeroext i1 @_ZNK5array6solver6sel_eqclEPN3euf5enodeES4_(ptr nocapture noundef nonnull readnone align 1 dereferenceable(1) %this, ptr nocapture noundef readonly %n1, ptr nocapture noundef readonly %n2) local_unnamed_addr #7 align 2 {
entry:
  %m_num_args.i = getelementptr inbounds i8, ptr %n1, i64 152
  %0 = load i32, ptr %m_num_args.i, align 8
  %m_args.i = getelementptr inbounds i8, ptr %n1, i64 176
  %cmp9 = icmp ult i32 %0, 2
  br i1 %cmp9, label %return, label %for.body.lr.ph

for.body.lr.ph:                                   ; preds = %entry
  %m_args.i5 = getelementptr inbounds i8, ptr %n2, i64 176
  %1 = zext i32 %0 to i64
  %arrayidx.i13 = getelementptr inbounds i8, ptr %n1, i64 184
  %2 = load ptr, ptr %arrayidx.i13, align 8
  %m_root.i14 = getelementptr inbounds i8, ptr %2, i64 64
  %3 = load ptr, ptr %m_root.i14, align 8
  %arrayidx.i715 = getelementptr inbounds i8, ptr %n2, i64 184
  %4 = load ptr, ptr %arrayidx.i715, align 8
  %m_root.i816 = getelementptr inbounds i8, ptr %4, i64 64
  %5 = load ptr, ptr %m_root.i816, align 8
  %cmp6.not17 = icmp eq ptr %3, %5
  br i1 %cmp6.not17, label %for.cond, label %return

for.cond:                                         ; preds = %for.body.lr.ph, %for.body
  %indvars.iv18 = phi i64 [ %indvars.iv.next, %for.body ], [ 1, %for.body.lr.ph ]
  %indvars.iv.next = add nuw nsw i64 %indvars.iv18, 1
  %exitcond = icmp eq i64 %indvars.iv.next, %1
  br i1 %exitcond, label %return.loopexit, label %for.body, !llvm.loop !30

for.body:                                         ; preds = %for.cond
  %arrayidx.i = getelementptr inbounds [0 x ptr], ptr %m_args.i, i64 0, i64 %indvars.iv.next
  %6 = load ptr, ptr %arrayidx.i, align 8
  %m_root.i = getelementptr inbounds i8, ptr %6, i64 64
  %7 = load ptr, ptr %m_root.i, align 8
  %arrayidx.i7 = getelementptr inbounds [0 x ptr], ptr %m_args.i5, i64 0, i64 %indvars.iv.next
  %8 = load ptr, ptr %arrayidx.i7, align 8
  %m_root.i8 = getelementptr inbounds i8, ptr %8, i64 64
  %9 = load ptr, ptr %m_root.i8, align 8
  %cmp6.not = icmp eq ptr %7, %9
  br i1 %cmp6.not, label %for.cond, label %return.loopexit, !llvm.loop !30

return.loopexit:                                  ; preds = %for.body, %for.cond
  %cmp.le = icmp uge i64 %indvars.iv.next, %1
  br label %return

return:                                           ; preds = %return.loopexit, %for.body.lr.ph, %entry
  %cmp.lcssa = phi i1 [ true, %entry ], [ false, %for.body.lr.ph ], [ %cmp.le, %return.loopexit ]
  ret i1 %cmp.lcssa
}